target datalayout = "e-m:e-p270:32:32-p271:32:32-p272:64:64-i64:64-i128:128-f80:128-n8:16:32:64-S128"
target triple = "x86_64-unknown-linux-gnu"

module asm ".section\09\22.initcall1.init\22, \22a\22\09\09"
module asm "__initcall__kmod_cpufreq_performance__332_44_cpufreq_gov_performance_init1:\09\09\09"
module asm ".long\09cpufreq_gov_performance_init - .\09"
module asm ".previous\09\09\09\09\09"

%struct.cpufreq_governor = type { [16 x i8], ptr, ptr, ptr, ptr, ptr, ptr, ptr, %struct.list_head, ptr, i8 }
%struct.list_head = type { ptr, ptr }

@cpufreq_gov_performance = internal global %struct.cpufreq_governor { [16 x i8] c"performance\00\00\00\00\00", ptr null, ptr null, ptr null, ptr null, ptr @cpufreq_gov_performance_limits, ptr null, ptr null, %struct.list_head zeroinitializer, ptr null, i8 2 }, align 8
@__UNIQUE_ID_author328 = internal constant [62 x i8] c"cpufreq_performance.author=Dominik Brodowski <linux@brodo.de>\00", section ".modinfo", align 1
@__UNIQUE_ID_description329 = internal constant [70 x i8] c"cpufreq_performance.description=CPUfreq policy governor 'performance'\00", section ".modinfo", align 1
@__UNIQUE_ID_file330 = internal constant [61 x i8] c"cpufreq_performance.file=drivers/cpufreq/cpufreq_performance\00", section ".modinfo", align 1
@__UNIQUE_ID_license331 = internal constant [32 x i8] c"cpufreq_performance.license=GPL\00", section ".modinfo", align 1
@__UNIQUE_ID___addressable_cpufreq_gov_performance_init333 = internal global ptr @cpufreq_gov_performance_init, section ".discard.addressable", align 8
@__exitcall_cpufreq_gov_performance_exit = internal global ptr @cpufreq_gov_performance_exit, section ".exitcall.exit", align 8
@llvm.compiler.used = appending global [7 x ptr] [ptr @__UNIQUE_ID___addressable_cpufreq_gov_performance_init333, ptr @__UNIQUE_ID_author328, ptr @__UNIQUE_ID_description329, ptr @__UNIQUE_ID_file330, ptr @__UNIQUE_ID_license331, ptr @__exitcall_cpufreq_gov_performance_exit, ptr @cpufreq_gov_performance_exit], section "llvm.metadata"

; Function Attrs: fn_ret_thunk_extern mustprogress nofree norecurse nosync nounwind null_pointer_is_valid willreturn memory(none)
define dso_local noundef nonnull ptr @cpufreq_fallback_governor() local_unnamed_addr #0 align 16 {
  ret ptr @cpufreq_gov_performance
}

; Function Attrs: cold fn_ret_thunk_extern nounwind null_pointer_is_valid optsize
define internal i32 @cpufreq_gov_performance_init() #1 section ".init.text" align 16 {
  %1 = tail call i32 @cpufreq_register_governor(ptr noundef nonnull @cpufreq_gov_performance) #4
  ret i32 %1
}

; Function Attrs: cold fn_ret_thunk_extern nounwind null_pointer_is_valid optsize
define internal void @cpufreq_gov_performance_exit() #1 section ".exit.text" align 16 {
  tail call void @cpufreq_unregister_governor(ptr noundef nonnull @cpufreq_gov_performance) #4
  ret void
}

; Function Attrs: null_pointer_is_valid
declare dso_local void @cpufreq_unregister_governor(ptr noundef) local_unnamed_addr #2

; Function Attrs: fn_ret_thunk_extern nounwind null_pointer_is_valid
define internal void @cpufreq_gov_performance_limits(ptr noundef %0) #3 align 16 {
  %2 = getelementptr inbounds i8, ptr %0, i64 56
  %3 = load i32, ptr %2, align 8
  %4 = tail call i32 @__cpufreq_driver_target(ptr noundef %0, i32 noundef %3, i32 noundef 1) #4
  ret void
}

; Function Attrs: null_pointer_is_valid
declare dso_local i32 @__cpufreq_driver_target(ptr noundef, i32 noundef, i32 noundef) local_unnamed_addr #2

; Function Attrs: null_pointer_is_valid
declare dso_local i32 @cpufreq_register_governor(ptr noundef) local_unnamed_addr #2


!llvm.module.flags = !{!0, !1, !2, !3, !4}

!0 = !{i32 1, !"wchar_size", i32 2}
!1 = !{i32 8, !"cf-protection-branch", i32 1}
!2 = !{i32 4, !"function_return_thunk_extern", i32 1}
!3 = !{i32 4, !"indirect_branch_cs_prefix", i32 1}
!4 = !{i32 4, !"SkipRaxSetup", i32 1}
